target datalayout = "e-m:e-p270:32:32-p271:32:32-p272:64:64-i64:64-i128:128-f80:128-n8:16:32:64-S128"
target triple = "x86_64-pc-linux-gnu"

%struct.Vec_Int_t_ = type { i32, i32, ptr }
%struct.Gia_Obj_t_ = type <{ i64, i32 }>
%struct.Gia_Man_t_ = type { ptr, ptr, i32, i32, i32, i32, ptr, ptr, i32, i32, i32, ptr, ptr, %struct.Vec_Int_t_, %struct.Vec_Int_t_, i32, i32, i32, %struct.Vec_Int_t_, ptr, ptr, ptr, i32, i32, i32, i32, ptr, ptr, ptr, ptr, ptr, i32, i32, ptr, i32, ptr, ptr, ptr, ptr, ptr, ptr, ptr, ptr, ptr, ptr, ptr, ptr, ptr, ptr, ptr, ptr, ptr, ptr, %struct.Vec_Int_t_, %struct.Vec_Int_t_, ptr, ptr, ptr, ptr, ptr, ptr, ptr, ptr, ptr, ptr, ptr, ptr, ptr, ptr, ptr, ptr, ptr, ptr, ptr, ptr, ptr, i32, float, float, ptr, ptr, i32, ptr, ptr, ptr, ptr, ptr, ptr, ptr, ptr, ptr, ptr, ptr, ptr, ptr, ptr, ptr, i64, i64, ptr, ptr, i32, i32, i32, i32, i32, i32, i32, i32, i32, i32, i32, i32, ptr, ptr, ptr, ptr, ptr, ptr, ptr, ptr, i32, i32, i32, ptr, i32, i32, ptr, ptr, ptr, ptr, ptr, ptr, i32, i32, ptr, %struct.Vec_Int_t_, %struct.Vec_Int_t_, %struct.Vec_Int_t_, ptr, ptr, ptr, i32, i32, i32, i32, ptr, ptr, ptr, ptr, ptr }

; Function Attrs: inlinehint nounwind uwtable
define internal i32 @Vec_IntSize(ptr noundef %0) #4 {
  %2 = alloca ptr, align 8
  store ptr %0, ptr %2, align 8, !tbaa !10
  %3 = load ptr, ptr %2, align 8, !tbaa !10
  %4 = getelementptr inbounds nuw %struct.Vec_Int_t_, ptr %3, i32 0, i32 1
  %5 = load i32, ptr %4, align 4, !tbaa !29
  ret i32 %5
}

; Function Attrs: inlinehint nounwind uwtable
define internal i32 @Gia_ManPiNum(ptr noundef %0) #4 {
  %2 = alloca ptr, align 8
  store ptr %0, ptr %2, align 8, !tbaa !34
  %3 = load ptr, ptr %2, align 8, !tbaa !34
  %4 = getelementptr inbounds nuw %struct.Gia_Man_t_, ptr %3, i32 0, i32 11
  %5 = load ptr, ptr %4, align 8, !tbaa !60
  %6 = call i32 @Vec_IntSize(ptr noundef %5)
  %7 = load ptr, ptr %2, align 8, !tbaa !34
  %8 = getelementptr inbounds nuw %struct.Gia_Man_t_, ptr %7, i32 0, i32 2
  %9 = load i32, ptr %8, align 8, !tbaa !61
  %10 = sub nsw i32 %6, %9
  ret i32 %10
}

; Function Attrs: inlinehint nounwind uwtable
define internal i32 @Gia_ObjCioId(ptr noundef %0) #4 {
  %2 = alloca ptr, align 8
  store ptr %0, ptr %2, align 8, !tbaa !35
  %3 = load ptr, ptr %2, align 8, !tbaa !35
  %4 = load i64, ptr %3, align 4
  %5 = lshr i64 %4, 32
  %6 = and i64 %5, 536870911
  %7 = trunc i64 %6 to i32
  ret i32 %7
}

; Function Attrs: inlinehint nounwind uwtable
define internal i32 @Gia_ObjIsCi(ptr noundef %0) #4 {
  %2 = alloca ptr, align 8
  store ptr %0, ptr %2, align 8, !tbaa !35
  %3 = load ptr, ptr %2, align 8, !tbaa !35
  %4 = load i64, ptr %3, align 4
  %5 = lshr i64 %4, 31
  %6 = and i64 %5, 1
  %7 = trunc i64 %6 to i32
  %8 = icmp ne i32 %7, 0
  br i1 %8, label %9, label %15

9:                                                ; preds = %1
  %10 = load ptr, ptr %2, align 8, !tbaa !35
  %11 = load i64, ptr %10, align 4
  %12 = and i64 %11, 536870911
  %13 = trunc i64 %12 to i32
  %14 = icmp eq i32 %13, 536870911
  br label %15

15:                                               ; preds = %9, %1
  %16 = phi i1 [ false, %1 ], [ %14, %9 ]
  %17 = zext i1 %16 to i32
  ret i32 %17
}

; Function Attrs: inlinehint nounwind uwtable
define internal i32 @Gia_ObjIsPi(ptr noundef %0, ptr noundef %1) #4 {
  %3 = alloca ptr, align 8
  %4 = alloca ptr, align 8
  store ptr %0, ptr %3, align 8, !tbaa !34
  store ptr %1, ptr %4, align 8, !tbaa !35
  %5 = load ptr, ptr %4, align 8, !tbaa !35
  %6 = call i32 @Gia_ObjIsCi(ptr noundef %5)
  %7 = icmp ne i32 %6, 0
  br i1 %7, label %8, label %14

8:                                                ; preds = %2
  %9 = load ptr, ptr %4, align 8, !tbaa !35
  %10 = call i32 @Gia_ObjCioId(ptr noundef %9)
  %11 = load ptr, ptr %3, align 8, !tbaa !34
  %12 = call i32 @Gia_ManPiNum(ptr noundef %11)
  %13 = icmp slt i32 %10, %12
  br label %14

14:                                               ; preds = %8, %2
  %15 = phi i1 [ false, %2 ], [ %13, %8 ]
  %16 = zext i1 %15 to i32
  ret i32 %16
}

; Function Attrs: inlinehint nounwind uwtable
define internal i32 @Gia_ObjFaninC1(ptr noundef %0) #4 {
  %2 = alloca ptr, align 8
  store ptr %0, ptr %2, align 8, !tbaa !35
  %3 = load ptr, ptr %2, align 8, !tbaa !35
  %4 = load i64, ptr %3, align 4
  %5 = lshr i64 %4, 61
  %6 = and i64 %5, 1
  %7 = trunc i64 %6 to i32
  ret i32 %7
}

; Function Attrs: inlinehint nounwind uwtable
define internal i32 @Gia_ObjFaninC0(ptr noundef %0) #4 {
  %2 = alloca ptr, align 8
  store ptr %0, ptr %2, align 8, !tbaa !35
  %3 = load ptr, ptr %2, align 8, !tbaa !35
  %4 = load i64, ptr %3, align 4
  %5 = lshr i64 %4, 29
  %6 = and i64 %5, 1
  %7 = trunc i64 %6 to i32
  ret i32 %7
}

; Function Attrs: inlinehint nounwind uwtable
define internal ptr @Gia_ObjFanin1(ptr noundef %0) #4 {
  %2 = alloca ptr, align 8
  store ptr %0, ptr %2, align 8, !tbaa !35
  %3 = load ptr, ptr %2, align 8, !tbaa !35
  %4 = load ptr, ptr %2, align 8, !tbaa !35
  %5 = load i64, ptr %4, align 4
  %6 = lshr i64 %5, 32
  %7 = and i64 %6, 536870911
  %8 = trunc i64 %7 to i32
  %9 = sext i32 %8 to i64
  %10 = sub i64 0, %9
  %11 = getelementptr inbounds %struct.Gia_Obj_t_, ptr %3, i64 %10
  ret ptr %11
}

; Function Attrs: inlinehint nounwind uwtable
define internal ptr @Gia_ObjFanin0(ptr noundef %0) #4 {
  %2 = alloca ptr, align 8
  store ptr %0, ptr %2, align 8, !tbaa !35
  %3 = load ptr, ptr %2, align 8, !tbaa !35
  %4 = load ptr, ptr %2, align 8, !tbaa !35
  %5 = load i64, ptr %4, align 4
  %6 = and i64 %5, 536870911
  %7 = trunc i64 %6 to i32
  %8 = sext i32 %7 to i64
  %9 = sub i64 0, %8
  %10 = getelementptr inbounds %struct.Gia_Obj_t_, ptr %3, i64 %9
  ret ptr %10
}

; Function Attrs: inlinehint nounwind uwtable
define internal i32 @Txs_ObjIsJust(ptr noundef %0, ptr noundef %1) #4 {
  %3 = alloca i32, align 4
  %4 = alloca ptr, align 8
  %5 = alloca ptr, align 8
  %6 = alloca ptr, align 8
  %7 = alloca ptr, align 8
  %8 = alloca i32, align 4
  %9 = alloca i32, align 4
  %10 = alloca i32, align 4
  store ptr %0, ptr %4, align 8, !tbaa !34
  store ptr %1, ptr %5, align 8, !tbaa !35
  call void @llvm.lifetime.start.p0(i64 8, ptr %6) #8
  %11 = load ptr, ptr %5, align 8, !tbaa !35
  %12 = call ptr @Gia_ObjFanin0(ptr noundef %11)
  store ptr %12, ptr %6, align 8, !tbaa !35
  call void @llvm.lifetime.start.p0(i64 8, ptr %7) #8
  %13 = load ptr, ptr %5, align 8, !tbaa !35
  %14 = call ptr @Gia_ObjFanin1(ptr noundef %13)
  store ptr %14, ptr %7, align 8, !tbaa !35
  call void @llvm.lifetime.start.p0(i64 4, ptr %8) #8
  %15 = load ptr, ptr %6, align 8, !tbaa !35
  %16 = load i64, ptr %15, align 4
  %17 = lshr i64 %16, 30
  %18 = and i64 %17, 1
  %19 = trunc i64 %18 to i32
  %20 = load ptr, ptr %5, align 8, !tbaa !35
  %21 = call i32 @Gia_ObjFaninC0(ptr noundef %20)
  %22 = xor i32 %19, %21
  store i32 %22, ptr %8, align 4, !tbaa !27
  call void @llvm.lifetime.start.p0(i64 4, ptr %9) #8
  %23 = load ptr, ptr %7, align 8, !tbaa !35
  %24 = load i64, ptr %23, align 4
  %25 = lshr i64 %24, 30
  %26 = and i64 %25, 1
  %27 = trunc i64 %26 to i32
  %28 = load ptr, ptr %5, align 8, !tbaa !35
  %29 = call i32 @Gia_ObjFaninC1(ptr noundef %28)
  %30 = xor i32 %27, %29
  store i32 %30, ptr %9, align 4, !tbaa !27
  %31 = load ptr, ptr %5, align 8, !tbaa !35
  %32 = load i64, ptr %31, align 4
  %33 = lshr i64 %32, 30
  %34 = and i64 %33, 1
  %35 = trunc i64 %34 to i32
  %36 = icmp ne i32 %35, 0
  br i1 %36, label %37, label %54

37:                                               ; preds = %2
  %38 = load ptr, ptr %6, align 8, !tbaa !35
  %39 = load i64, ptr %38, align 4
  %40 = lshr i64 %39, 62
  %41 = and i64 %40, 1
  %42 = trunc i64 %41 to i32
  %43 = icmp ne i32 %42, 0
  br i1 %43, label %44, label %51

44:                                               ; preds = %37
  %45 = load ptr, ptr %7, align 8, !tbaa !35
  %46 = load i64, ptr %45, align 4
  %47 = lshr i64 %46, 62
  %48 = and i64 %47, 1
  %49 = trunc i64 %48 to i32
  %50 = icmp ne i32 %49, 0
  br label %51

51:                                               ; preds = %44, %37
  %52 = phi i1 [ false, %37 ], [ %50, %44 ]
  %53 = zext i1 %52 to i32
  store i32 %53, ptr %3, align 4
  store i32 1, ptr %10, align 4
  br label %117

54:                                               ; preds = %2
  %55 = load i32, ptr %8, align 4, !tbaa !27
  %56 = icmp ne i32 %55, 0
  br i1 %56, label %57, label %72

57:                                               ; preds = %54
  %58 = load ptr, ptr %7, align 8, !tbaa !35
  %59 = load i64, ptr %58, align 4
  %60 = lshr i64 %59, 62
  %61 = and i64 %60, 1
  %62 = trunc i64 %61 to i32
  %63 = icmp ne i32 %62, 0
  br i1 %63, label %69, label %64

64:                                               ; preds = %57
  %65 = load ptr, ptr %4, align 8, !tbaa !34
  %66 = load ptr, ptr %7, align 8, !tbaa !35
  %67 = call i32 @Gia_ObjIsPi(ptr noundef %65, ptr noundef %66)
  %68 = icmp ne i32 %67, 0
  br label %69

69:                                               ; preds = %64, %57
  %70 = phi i1 [ true, %57 ], [ %68, %64 ]
  %71 = zext i1 %70 to i32
  store i32 %71, ptr %3, align 4
  store i32 1, ptr %10, align 4
  br label %117

72:                                               ; preds = %54
  %73 = load i32, ptr %9, align 4, !tbaa !27
  %74 = icmp ne i32 %73, 0
  br i1 %74, label %75, label %90

75:                                               ; preds = %72
  %76 = load ptr, ptr %6, align 8, !tbaa !35
  %77 = load i64, ptr %76, align 4
  %78 = lshr i64 %77, 62
  %79 = and i64 %78, 1
  %80 = trunc i64 %79 to i32
  %81 = icmp ne i32 %80, 0
  br i1 %81, label %87, label %82

82:                                               ; preds = %75
  %83 = load ptr, ptr %4, align 8, !tbaa !34
  %84 = load ptr, ptr %6, align 8, !tbaa !35
  %85 = call i32 @Gia_ObjIsPi(ptr noundef %83, ptr noundef %84)
  %86 = icmp ne i32 %85, 0
  br label %87

87:                                               ; preds = %82, %75
  %88 = phi i1 [ true, %75 ], [ %86, %82 ]
  %89 = zext i1 %88 to i32
  store i32 %89, ptr %3, align 4
  store i32 1, ptr %10, align 4
  br label %117

90:                                               ; preds = %72
  %91 = load ptr, ptr %6, align 8, !tbaa !35
  %92 = load i64, ptr %91, align 4
  %93 = lshr i64 %92, 62
  %94 = and i64 %93, 1
  %95 = trunc i64 %94 to i32
  %96 = icmp ne i32 %95, 0
  br i1 %96, label %114, label %97

97:                                               ; preds = %90
  %98 = load ptr, ptr %7, align 8, !tbaa !35
  %99 = load i64, ptr %98, align 4
  %100 = lshr i64 %99, 62
  %101 = and i64 %100, 1
  %102 = trunc i64 %101 to i32
  %103 = icmp ne i32 %102, 0
  br i1 %103, label %114, label %104

104:                                              ; preds = %97
  %105 = load ptr, ptr %4, align 8, !tbaa !34
  %106 = load ptr, ptr %6, align 8, !tbaa !35
  %107 = call i32 @Gia_ObjIsPi(ptr noundef %105, ptr noundef %106)
  %108 = icmp ne i32 %107, 0
  br i1 %108, label %114, label %109

109:                                              ; preds = %104
  %110 = load ptr, ptr %4, align 8, !tbaa !34
  %111 = load ptr, ptr %7, align 8, !tbaa !35
  %112 = call i32 @Gia_ObjIsPi(ptr noundef %110, ptr noundef %111)
  %113 = icmp ne i32 %112, 0
  br label %114

114:                                              ; preds = %109, %104, %97, %90
  %115 = phi i1 [ true, %104 ], [ true, %97 ], [ true, %90 ], [ %113, %109 ]
  %116 = zext i1 %115 to i32
  store i32 %116, ptr %3, align 4
  store i32 1, ptr %10, align 4
  br label %117

117:                                              ; preds = %114, %87, %69, %51
  call void @llvm.lifetime.end.p0(i64 4, ptr %9) #8
  call void @llvm.lifetime.end.p0(i64 4, ptr %8) #8
  call void @llvm.lifetime.end.p0(i64 8, ptr %7) #8
  call void @llvm.lifetime.end.p0(i64 8, ptr %6) #8
  %118 = load i32, ptr %3, align 4
  ret i32 %118
}