; Function Attrs: inlinehint mustprogress nofree norecurse nosync nounwind willreturn memory(read, inaccessiblemem: none) uwtable
define internal fastcc range(i32 0, 2) i32 @Txs_ObjIsJust(ptr noundef readonly captures(none) %0, ptr noundef readonly captures(none) %1) unnamed_addr #5 {
  %3 = load i64, ptr %1, align 4
  %4 = and i64 %3, 536870911
  %5 = sub nsw i64 0, %4
  %6 = getelementptr inbounds %struct.Gia_Obj_t_, ptr %1, i64 %5
  %7 = lshr i64 %3, 32
  %8 = and i64 %7, 536870911
  %9 = sub nsw i64 0, %8
  %10 = getelementptr inbounds %struct.Gia_Obj_t_, ptr %1, i64 %9
  %11 = load i64, ptr %6, align 4
  %12 = load i64, ptr %10, align 4
  %13 = trunc i64 %12 to i32
  %14 = lshr i32 %13, 30
  %15 = lshr i64 %3, 61
  %16 = trunc nuw nsw i64 %15 to i32
  %17 = and i64 %3, 1073741824
  %.not = icmp eq i64 %17, 0
  br i1 %.not, label %24, label %18

18:                                               ; preds = %2
  %19 = and i64 %11, 4611686018427387904
  %.not30 = icmp eq i64 %19, 0
  br i1 %.not30, label %Gia_ObjIsPi.exit, label %20

20:                                               ; preds = %18
  %21 = lshr i64 %12, 62
  %22 = trunc nuw nsw i64 %21 to i32
  %23 = and i32 %22, 1
  br label %Gia_ObjIsPi.exit

24:                                               ; preds = %2
  %25 = trunc i64 %3 to i32
  %26 = lshr i32 %25, 29
  %27 = trunc i64 %11 to i32
  %28 = lshr i32 %27, 30
  %29 = xor i32 %28, %26
  %30 = and i32 %29, 1
  %.not23 = icmp eq i32 %30, 0
  br i1 %.not23, label %45, label %31

31:                                               ; preds = %24
  %32 = and i64 %12, 4611686018427387904
  %.not29 = icmp eq i64 %32, 0
  br i1 %.not29, label %33, label %Gia_ObjIsPi.exit

33:                                               ; preds = %31
  %34 = and i64 %12, 2684354559
  %narrow.i.not.i = icmp eq i64 %34, 2684354559
  br i1 %narrow.i.not.i, label %35, label %Gia_ObjIsPi.exit

35:                                               ; preds = %33
  %36 = lshr i64 %12, 32
  %37 = trunc nuw i64 %36 to i32
  %38 = and i32 %37, 536870911
  %39 = getelementptr i8, ptr %0, i64 16
  %.val4.i = load i32, ptr %39, align 8, !tbaa !49
  %40 = getelementptr i8, ptr %0, i64 64
  %.val5.i = load ptr, ptr %40, align 8, !tbaa !50
  %41 = getelementptr i8, ptr %.val5.i, i64 4
  %.val5.val.i = load i32, ptr %41, align 4, !tbaa !12
  %42 = sub nsw i32 %.val5.val.i, %.val4.i
  %43 = icmp slt i32 %38, %42
  %44 = zext i1 %43 to i32
  br label %Gia_ObjIsPi.exit

45:                                               ; preds = %24
  %46 = xor i32 %14, %16
  %47 = and i32 %46, 1
  %.not24 = icmp eq i32 %47, 0
  %48 = and i64 %11, 4611686018427387904
  %.not25 = icmp eq i64 %48, 0
  br i1 %.not24, label %62, label %49

49:                                               ; preds = %45
  br i1 %.not25, label %50, label %Gia_ObjIsPi.exit

50:                                               ; preds = %49
  %51 = and i64 %11, 2684354559
  %narrow.i.not.i36 = icmp eq i64 %51, 2684354559
  br i1 %narrow.i.not.i36, label %52, label %Gia_ObjIsPi.exit

52:                                               ; preds = %50
  %53 = lshr i64 %11, 32
  %54 = trunc nuw i64 %53 to i32
  %55 = and i32 %54, 536870911
  %56 = getelementptr i8, ptr %0, i64 16
  %.val4.i37 = load i32, ptr %56, align 8, !tbaa !49
  %57 = getelementptr i8, ptr %0, i64 64
  %.val5.i38 = load ptr, ptr %57, align 8, !tbaa !50
  %58 = getelementptr i8, ptr %.val5.i38, i64 4
  %.val5.val.i39 = load i32, ptr %58, align 4, !tbaa !12
  %59 = sub nsw i32 %.val5.val.i39, %.val4.i37
  %60 = icmp slt i32 %55, %59
  %61 = zext i1 %60 to i32
  br label %Gia_ObjIsPi.exit

62:                                               ; preds = %45
  %63 = and i64 %12, 4611686018427387904
  %.not26 = icmp eq i64 %63, 0
  %or.cond = select i1 %.not25, i1 %.not26, i1 false
  br i1 %or.cond, label %64, label %Gia_ObjIsPi.exit

64:                                               ; preds = %62
  %65 = and i64 %11, 2684354559
  %narrow.i.not.i41 = icmp eq i64 %65, 2684354559
  br i1 %narrow.i.not.i41, label %Gia_ObjIsPi.exit45, label %Gia_ObjIsPi.exit45.thread

Gia_ObjIsPi.exit45:                               ; preds = %64
  %66 = lshr i64 %11, 32
  %67 = trunc nuw i64 %66 to i32
  %68 = and i32 %67, 536870911
  %69 = getelementptr i8, ptr %0, i64 16
  %.val4.i42 = load i32, ptr %69, align 8, !tbaa !49
  %70 = getelementptr i8, ptr %0, i64 64
  %.val5.i43 = load ptr, ptr %70, align 8, !tbaa !50
  %71 = getelementptr i8, ptr %.val5.i43, i64 4
  %.val5.val.i44 = load i32, ptr %71, align 4, !tbaa !12
  %72 = sub nsw i32 %.val5.val.i44, %.val4.i42
  %.not52 = icmp slt i32 %68, %72
  br i1 %.not52, label %Gia_ObjIsPi.exit, label %Gia_ObjIsPi.exit45.thread

Gia_ObjIsPi.exit45.thread:                        ; preds = %64, %Gia_ObjIsPi.exit45
  %73 = and i64 %12, 2684354559
  %narrow.i.not.i46 = icmp eq i64 %73, 2684354559
  br i1 %narrow.i.not.i46, label %74, label %Gia_ObjIsPi.exit

74:                                               ; preds = %Gia_ObjIsPi.exit45.thread
  %75 = lshr i64 %12, 32
  %76 = trunc nuw i64 %75 to i32
  %77 = and i32 %76, 536870911
  %78 = getelementptr i8, ptr %0, i64 16
  %.val4.i47 = load i32, ptr %78, align 8, !tbaa !49
  %79 = getelementptr i8, ptr %0, i64 64
  %.val5.i48 = load ptr, ptr %79, align 8, !tbaa !50
  %80 = getelementptr i8, ptr %.val5.i48, i64 4
  %.val5.val.i49 = load i32, ptr %80, align 4, !tbaa !12
  %81 = sub nsw i32 %.val5.val.i49, %.val4.i47
  %82 = icmp slt i32 %77, %81
  %83 = zext i1 %82 to i32
  br label %Gia_ObjIsPi.exit

Gia_ObjIsPi.exit:                                 ; preds = %74, %Gia_ObjIsPi.exit45.thread, %52, %50, %35, %33, %62, %Gia_ObjIsPi.exit45, %49, %31, %18, %20
  %.0 = phi i32 [ 0, %18 ], [ %23, %20 ], [ 1, %31 ], [ 1, %49 ], [ 1, %Gia_ObjIsPi.exit45 ], [ 1, %62 ], [ 0, %33 ], [ %44, %35 ], [ 0, %50 ], [ %61, %52 ], [ 0, %Gia_ObjIsPi.exit45.thread ], [ %83, %74 ]
  ret i32 %.0
}